(dp0
(iutils.PhysicsQuantities
Isotope
p1
(dp2
S'A'
p3
I54
sS'Z'
p4
I25
sS'iso'
p5
I0
sbF0.9999768677048755
s(iutils.PhysicsQuantities
Isotope
p6
(dp7
g3
I51
sg4
I25
sg5
I0
sbF1.7949551342539452
s(iutils.PhysicsQuantities
Isotope
p8
(dp9
g3
I48
sg4
I23
sg5
I0
sbF1.9995460782408778
s(iutils.PhysicsQuantities
Isotope
p10
(dp11
g3
I24
sg4
I13
sg5
I0
sbF1.0804663679714558e-132
s(iutils.PhysicsQuantities
Isotope
p12
(dp13
g3
I61
sg4
I27
sg5
I0
sbF2.794158852977397
s(iutils.PhysicsQuantities
Isotope
p14
(dp15
g3
I24
sg4
I11
sg5
I0
sbF1.9755651217372228
s(iutils.PhysicsQuantities
Isotope
p16
(dp17
g3
I33
sg4
I18
sg5
I0
sbF0.0
s(iutils.PhysicsQuantities
Isotope
p18
(dp19
g3
I93
sg4
I40
sg5
I0
sbF3.1711869887789854e-05
s(iutils.PhysicsQuantities
Isotope
p20
(dp21
g3
I52
sg4
I25
sg5
I1
sbF0.9956424582916192
s(iutils.PhysicsQuantities
Isotope
p22
(dp23
g3
I48
sg4
I20
sg5
I0
sbF4.577387041433601e-19
s(iutils.PhysicsQuantities
Isotope
p24
(dp25
g3
I89
sg4
I39
sg5
I1
sbF0.9966505294032236
s(iutils.PhysicsQuantities
Isotope
p26
(dp27
g3
I61
sg4
I30
sg5
I0
sbF0.000910527303093875
s(iutils.PhysicsQuantities
Isotope
p28
(dp29
g3
I39
sg4
I18
sg5
I0
sbF0.17247439639215206
s(iutils.PhysicsQuantities
Isotope
p30
(dp31
g3
I39
sg4
I20
sg5
I0
sbF9.3027037e-316
s(iutils.PhysicsQuantities
Isotope
p32
(dp33
g3
I85
sg4
I39
sg5
I0
sbF0.9373868217256248
s(iutils.PhysicsQuantities
Isotope
p34
(dp35
g3
I65
sg4
I28
sg5
I0
sbF0.9335464098767885
s(iutils.PhysicsQuantities
Isotope
p36
(dp37
g3
I63
sg4
I28
sg5
I0
sbF0.4285596058075596
s(iutils.PhysicsQuantities
Isotope
p38
(dp39
g3
I53
sg4
I27
sg5
I0
sbF0.0
s(iutils.PhysicsQuantities
Isotope
p40
(dp41
g3
I8
sg4
I3
sg5
I0
sbF5e-324
s(iutils.PhysicsQuantities
Isotope
p42
(dp43
g3
I87
sg4
I39
sg5
I0
sbF1.9821740383016164
s(iutils.PhysicsQuantities
Isotope
p44
(dp45
g3
I34
sg4
I15
sg5
I0
sbF1.415952556054225e-22
s(iutils.PhysicsQuantities
Isotope
p46
(dp47
g3
I13
sg4
I7
sg5
I0
sbF0.3523383972273433
s(iutils.PhysicsQuantities
Isotope
p48
(dp49
g3
I43
sg4
I22
sg5
I0
sbF0.0
s(iutils.PhysicsQuantities
Isotope
p50
(dp51
g3
I22
sg4
I12
sg5
I0
sbF5.715656073883221e-71
s(iutils.PhysicsQuantities
Isotope
p52
(dp53
g3
I65
sg4
I31
sg5
I0
sbF0.5045810374147303
s(iutils.PhysicsQuantities
Isotope
p54
(dp55
g3
I19
sg4
I10
sg5
I0
sbF2.322463552278822e-16
s(iutils.PhysicsQuantities
Isotope
p56
(dp57
g3
I18
sg4
I9
sg5
I0
sbF1.819442546520492
s(iutils.PhysicsQuantities
Isotope
p58
(dp59
g3
I46
sg4
I23
sg5
I0
sbF0.0
s(iutils.PhysicsQuantities
Isotope
p60
(dp61
g3
I43
sg4
I21
sg5
I0
sbF0.9564418511512893
s(iutils.PhysicsQuantities
Isotope
p62
(dp63
g3
I22
sg4
I9
sg5
I0
sbF8.934386835301561e-65
s(iutils.PhysicsQuantities
Isotope
p64
(dp65
g3
I94
sg4
I40
sg5
I0
sbF4.043358553266348e-15
s(iutils.PhysicsQuantities
Isotope
p66
(dp67
g3
I83
sg4
I38
sg5
I1
sbF0.005172111877070459
s(iutils.PhysicsQuantities
Isotope
p68
(dp69
g3
I57
sg4
I28
sg5
I0
sbF1.9903719807903357
s(iutils.PhysicsQuantities
Isotope
p70
(dp71
g3
I93
sg4
I41
sg5
I1
sbF1.4932282135032068e-05
s(iutils.PhysicsQuantities
Isotope
p72
(dp73
g3
I95
sg4
I41
sg5
I1
sbF0.010799998709563727
s(iutils.PhysicsQuantities
Isotope
p74
(dp75
g3
I48
sg4
I24
sg5
I0
sbF0.9919947927798917
s(iutils.PhysicsQuantities
Isotope
p76
(dp77
g3
I60
sg4
I27
sg5
I0
sbF0.9899955863940463
s(iutils.PhysicsQuantities
Isotope
p78
(dp79
g3
I36
sg4
I17
sg5
I0
sbF8.059850936214211e-05
s(iutils.PhysicsQuantities
Isotope
p80
(dp81
g3
I55
sg4
I27
sg5
I0
sbF1.9803302827084996
s(iutils.PhysicsQuantities
Isotope
p82
(dp83
g3
I120
sg4
I51
sg5
I0
sbF0.520007297167598
s(iutils.PhysicsQuantities
Isotope
p84
(dp85
g3
I21
sg4
I8
sg5
I0
sbF6.0475586434278086e-80
s(iutils.PhysicsQuantities
Isotope
p86
(dp87
g3
I30
sg4
I15
sg5
I0
sbF0.015573058863346997
s(iutils.PhysicsQuantities
Isotope
p88
(dp89
g3
I89
sg4
I38
sg5
I0
sbF0.9998572220065091
s(iutils.PhysicsQuantities
Isotope
p90
(dp91
g3
I32
sg4
I17
sg5
I0
sbF0.0
s(iutils.PhysicsQuantities
Isotope
p92
(dp93
g3
I3
sg4
I1
sg5
I0
sbF0.8602026222829751
s(iutils.PhysicsQuantities
Isotope
p94
(dp95
g3
I50
sg4
I25
sg5
I0
sbF0.0
s(iutils.PhysicsQuantities
Isotope
p96
(dp97
g3
I21
sg4
I11
sg5
I0
sbF8.983511943008449e-13
s(iutils.PhysicsQuantities
Isotope
p98
(dp99
g3
I55
sg4
I23
sg5
I0
sbF3.7484680000454795e-42
s(iutils.PhysicsQuantities
Isotope
p100
(dp101
g3
I60
sg4
I29
sg5
I0
sbF1.360321879516863
s(iutils.PhysicsQuantities
Isotope
p102
(dp103
g3
I89
sg4
I40
sg5
I0
sbF0.9977923751585588
s(iutils.PhysicsQuantities
Isotope
p104
(dp105
g3
I52
sg4
I27
sg5
I0
sbF0.0
s(iutils.PhysicsQuantities
Isotope
p106
(dp107
g3
I64
sg4
I29
sg5
I0
sbF0.9864490962132131
s(iutils.PhysicsQuantities
Isotope
p108
(dp109
g3
I86
sg4
I39
sg5
I0
sbF0.9965172747322195
s(iutils.PhysicsQuantities
Isotope
p110
(dp111
g3
I33
sg4
I15
sg5
I0
sbF0.9997155465023506
s(iutils.PhysicsQuantities
Isotope
p112
(dp113
g3
I12
sg4
I7
sg5
I0
sbF0.0
s(iutils.PhysicsQuantities
Isotope
p114
(dp115
g3
I17
sg4
I9
sg5
I0
sbF6.303495626562503e-05
s(iutils.PhysicsQuantities
Isotope
p116
(dp117
g3
I38
sg4
I19
sg5
I0
sbF0.2550601343468865
s(iutils.PhysicsQuantities
Isotope
p118
(dp119
g3
I39
sg4
I17
sg5
I0
sbF0.8294436213911057
s(iutils.PhysicsQuantities
Isotope
p120
(dp121
g3
I55
sg4
I26
sg5
I0
sbF2.9995709785802527
s(iutils.PhysicsQuantities
Isotope
p122
(dp123
g3
I31
sg4
I16
sg5
I0
sbF4.601609488510835e-106
s(iutils.PhysicsQuantities
Isotope
p124
(dp125
g3
I12
sg4
I4
sg5
I0
sbF0.0
s(iutils.PhysicsQuantities
Isotope
p126
(dp127
g3
I18
sg4
I10
sg5
I0
sbF9.169019748869215e-163
s(iutils.PhysicsQuantities
Isotope
p128
(dp129
g3
I25
sg4
I13
sg5
I0
sbF1.9151139185018195e-38
s(iutils.PhysicsQuantities
Isotope
p130
(dp131
g3
I37
sg4
I16
sg5
I0
sbF0.12448018166049654
s(iutils.PhysicsQuantities
Isotope
p132
(dp133
g3
I55
sg4
I28
sg5
I0
sbF0.0
s(iutils.PhysicsQuantities
Isotope
p134
(dp135
g3
I21
sg4
I9
sg5
I0
sbF6.950119638141423e-66
s(iutils.PhysicsQuantities
Isotope
p136
(dp137
g3
I27
sg4
I11
sg5
I0
sbF0.0
s(iutils.PhysicsQuantities
Isotope
p138
(dp139
g3
I16
sg4
I7
sg5
I0
sbF1.0042083523486994e-38
s(iutils.PhysicsQuantities
Isotope
p140
(dp141
g3
I25
sg4
I10
sg5
I0
sbF0.0
s(iutils.PhysicsQuantities
Isotope
p142
(dp143
g3
I56
sg4
I28
sg5
I0
sbF0.9988121820427297
s(iutils.PhysicsQuantities
Isotope
p144
(dp145
g3
I52
sg4
I23
sg5
I0
sbF0.17446727558992503
s(iutils.PhysicsQuantities
Isotope
p146
(dp147
g3
I28
sg4
I13
sg5
I0
sbF0.009662147362780975
s(iutils.PhysicsQuantities
Isotope
p148
(dp149
g3
I78
sg4
I36
sg5
I0
sbF2.2054683017816437e-19
s(iutils.PhysicsQuantities
Isotope
p150
(dp151
g3
I62
sg4
I29
sg5
I0
sbF1.3370947401824966
s(iutils.PhysicsQuantities
Isotope
p152
(dp153
g3
I83
sg4
I39
sg5
I0
sbF0.2302632263182708
s(iutils.PhysicsQuantities
Isotope
p154
(dp155
g3
I54
sg4
I23
sg5
I0
sbF3.628263948529901e-06
s(iutils.PhysicsQuantities
Isotope
p156
(dp157
g3
I59
sg4
I29
sg5
I0
sbF0.00047307109178901116
s(iutils.PhysicsQuantities
Isotope
p158
(dp159
g3
I56
sg4
I25
sg5
I0
sbF1.9005353827561562
s(iutils.PhysicsQuantities
Isotope
p160
(dp161
g3
I32
sg4
I15
sg5
I0
sbF0.9994940236068092
s(iutils.PhysicsQuantities
Isotope
p162
(dp163
g3
I62
sg4
I30
sg5
I0
sbF0.9814605331754926
s(iutils.PhysicsQuantities
Isotope
p164
(dp165
g3
I42
sg4
I21
sg5
I0
sbF0.0
s(iutils.PhysicsQuantities
Isotope
p166
(dp167
g3
I115
sg4
I51
sg5
I0
sbF0.7233221719898824
s(iutils.PhysicsQuantities
Isotope
p168
(dp169
g3
I23
sg4
I9
sg5
I0
sbF3.221613962519033e-122
s(iutils.PhysicsQuantities
Isotope
p170
(dp171
g3
I36
sg4
I15
sg5
I0
sbF4.1704149453801665e-49
s(iutils.PhysicsQuantities
Isotope
p172
(dp173
g3
I62
sg4
I27
sg5
I0
sbF0.004648682785994555
s(iutils.PhysicsQuantities
Isotope
p174
(dp175
g3
I44
sg4
I22
sg5
I0
sbF0.33257996333827405
s(iutils.PhysicsQuantities
Isotope
p176
(dp177
g3
I23
sg4
I12
sg5
I0
sbF1.1486171669587817e-24
s(iutils.PhysicsQuantities
Isotope
p178
(dp179
g3
I58
sg4
I27
sg5
I0
sbF0.9998981049515829
s(iutils.PhysicsQuantities
Isotope
p180
(dp181
g3
I97
sg4
I41
sg5
I0
sbF0.9993932696422525
s(iutils.PhysicsQuantities
Isotope
p182
(dp183
g3
I51
sg4
I24
sg5
I0
sbF2.999711778282938
s(iutils.PhysicsQuantities
Isotope
p184
(dp185
g3
I47
sg4
I21
sg5
I0
sbF1.9978459424364976
s(iutils.PhysicsQuantities
Isotope
p186
(dp187
g3
I27
sg4
I14
sg5
I0
sbF7.469959475454023e-66
s(iutils.PhysicsQuantities
Isotope
p188
(dp189
g3
I61
sg4
I26
sg5
I0
sbF0.35183909001436475
s(iutils.PhysicsQuantities
Isotope
p190
(dp191
g3
I91
sg4
I39
sg5
I0
sbF0.9998765974511907
s(iutils.PhysicsQuantities
Isotope
p192
(dp193
g3
I58
sg4
I28
sg5
I0
sbF6.931471805599453e-20
s(iutils.PhysicsQuantities
Isotope
p194
(dp195
g3
I54
sg4
I27
sg5
I0
sbF0.0
s(iutils.PhysicsQuantities
Isotope
p196
(dp197
g3
I93
sg4
I39
sg5
I0
sbF0.9831217819113479
s(iutils.PhysicsQuantities
Isotope
p198
(dp199
g3
I48
sg4
I21
sg5
I0
sbF0.9960406703629958
s(iutils.PhysicsQuantities
Isotope
p200
(dp201
g3
I31
sg4
I14
sg5
I0
sbF1.8720635465093336
s(iutils.PhysicsQuantities
Isotope
p202
(dp203
g3
I61
sg4
I29
sg5
I0
sbF1.905769831713478
s(iutils.PhysicsQuantities
Isotope
p204
(dp205
g3
I83
sg4
I36
sg5
I1
sbF1.499999993368977
s(iutils.PhysicsQuantities
Isotope
p206
(dp207
g3
I85
sg4
I38
sg5
I0
sbF1.8658885087364037
s(iutils.PhysicsQuantities
Isotope
p208
(dp209
g3
I6
sg4
I2
sg5
I0
sbF0.0
s(iutils.PhysicsQuantities
Isotope
p210
(dp211
g3
I41
sg4
I21
sg5
I0
sbF0.0
s(iutils.PhysicsQuantities
Isotope
p212
(dp213
g3
I53
sg4
I26
sg5
I0
sbF0.5895585414762439
s(iutils.PhysicsQuantities
Isotope
p214
(dp215
g3
I8
sg4
I4
sg5
I0
sbF0.0
s(iutils.PhysicsQuantities
Isotope
p216
(dp217
g3
I35
sg4
I15
sg5
I0
sbF1.8713565030052307e-06
s(iutils.PhysicsQuantities
Isotope
p218
(dp219
g3
I65
sg4
I30
sg5
I0
sbF1.9999622722508488
s(iutils.PhysicsQuantities
Isotope
p220
(dp221
g3
I119
sg4
I51
sg5
I0
sbF0.9954862308905367
s(iutils.PhysicsQuantities
Isotope
p222
(dp223
g3
I15
sg4
I6
sg5
I0
sbF2.357211168742913e-111
s(iutils.PhysicsQuantities
Isotope
p224
(dp225
g3
I87
sg4
I37
sg5
I0
sbF3.0012558941950477e-12
s(iutils.PhysicsQuantities
Isotope
p226
(dp227
g3
I26
sg4
I11
sg5
I0
sbF1.3857033918677901e-251
s(iutils.PhysicsQuantities
Isotope
p228
(dp229
g3
I94
sg4
I41
sg5
I0
sbF0.001213614371966322
s(iutils.PhysicsQuantities
Isotope
p230
(dp231
g3
I19
sg4
I8
sg5
I0
sbF8.5527773896743e-11
s(iutils.PhysicsQuantities
Isotope
p232
(dp233
g3
I87
sg4
I38
sg5
I1
sbF1.9842785303669546
s(iutils.PhysicsQuantities
Isotope
p234
(dp235
g3
I87
sg4
I40
sg5
I0
sbF0.9019944590765462
s(iutils.PhysicsQuantities
Isotope
p236
(dp237
g3
I17
sg4
I7
sg5
I0
sbF1.070279824378388e-65
s(iutils.PhysicsQuantities
Isotope
p238
(dp239
g3
I43
sg4
I19
sg5
I0
sbF0.9922246739617318
s(iutils.PhysicsQuantities
Isotope
p240
(dp241
g3
I22
sg4
I11
sg5
I0
sbF0.9999027988578084
s(iutils.PhysicsQuantities
Isotope
p242
(dp243
g3
I47
sg4
I24
sg5
I0
sbF0.0
s(iutils.PhysicsQuantities
Isotope
p244
(dp245
g3
I50
sg4
I21
sg5
I0
sbF0.0022714017135808634
s(iutils.PhysicsQuantities
Isotope
p246
(dp247
g3
I29
sg4
I13
sg5
I0
sbF0.20496004947378743
s(iutils.PhysicsQuantities
Isotope
p248
(dp249
g3
I30
sg4
I12
sg5
I0
sbF0.0
s(iutils.PhysicsQuantities
Isotope
p250
(dp251
g3
I60
sg4
I25
sg5
I0
sbF4.87198518354831e-06
s(iutils.PhysicsQuantities
Isotope
p252
(dp253
g3
I57
sg4
I25
sg5
I0
sbF0.0015625699776540395
s(iutils.PhysicsQuantities
Isotope
p254
(dp255
g3
I53
sg4
I22
sg5
I0
sbF5.185262672285838e-09
s(iutils.PhysicsQuantities
Isotope
p256
(dp257
g3
I60
sg4
I30
sg5
I0
sbF0.012669285650752878
s(iutils.PhysicsQuantities
Isotope
p258
(dp259
g3
I116
sg4
I51
sg5
I0
sbF0.5178595974871316
s(iutils.PhysicsQuantities
Isotope
p260
(dp261
g3
I92
sg4
I41
sg5
I0
sbF6.931471805595538e-07
s(iutils.PhysicsQuantities
Isotope
p262
(dp263
g3
I84
sg4
I37
sg5
I0
sbF0.9997844691602735
s(iutils.PhysicsQuantities
Isotope
p264
(dp265
g3
I90
sg4
I39
sg5
I0
sbF0.9973004369392784
s(iutils.PhysicsQuantities
Isotope
p266
(dp267
g3
I52
sg4
I25
sg5
I0
sbF1.0162103096754973
s(iutils.PhysicsQuantities
Isotope
p268
(dp269
g3
I45
sg4
I20
sg5
I0
sbF1.9999447017384067
s(iutils.PhysicsQuantities
Isotope
p270
(dp271
g3
I12
sg4
I5
sg5
I0
sbF0.0
s(iutils.PhysicsQuantities
Isotope
p272
(dp273
g3
I20
sg4
I8
sg5
I0
sbF8.834628617636675e-21
s(iutils.PhysicsQuantities
Isotope
p274
(dp275
g3
I92
sg4
I39
sg5
I0
sbF0.95222771908664
s(iutils.PhysicsQuantities
Isotope
p276
(dp277
g3
I55
sg4
I24
sg5
I0
sbF0.1077267444806336
s(iutils.PhysicsQuantities
Isotope
p278
(dp279
g3
I24
sg4
I11
sg5
I1
sbF0.04614353885599056
s(iutils.PhysicsQuantities
Isotope
p280
(dp281
g3
I40
sg4
I19
sg5
I0
sbF1.9177985232883563e-08
s(iutils.PhysicsQuantities
Isotope
p282
(dp283
g3
I82
sg4
I37
sg5
I0
sbF1.00003571812089
s(iutils.PhysicsQuantities
Isotope
p284
(dp285
g3
I23
sg4
I10
sg5
I0
sbF9.980424604243913e-08
s(iutils.PhysicsQuantities
Isotope
p286
(dp287
g3
I45
sg4
I23
sg5
I0
sbF0.0
s(iutils.PhysicsQuantities
Isotope
p288
(dp289
g3
I124
sg4
I51
sg5
I0
sbF0.9998800617420127
s(iutils.PhysicsQuantities
Isotope
p290
(dp291
g3
I9
sg4
I6
sg5
I0
sbF0.0
s(iutils.PhysicsQuantities
Isotope
p292
(dp293
g3
I20
sg4
I11
sg5
I0
sbF0.0
s(iutils.PhysicsQuantities
Isotope
p294
(dp295
g3
I87
sg4
I39
sg5
I1
sbF0.9965585718965644
s(iutils.PhysicsQuantities
Isotope
p296
(dp297
g3
I49
sg4
I21
sg5
I0
sbF0.8337936197901346
s(iutils.PhysicsQuantities
Isotope
p298
(dp299
g3
I56
sg4
I29
sg5
I0
sbF0.0
s(iutils.PhysicsQuantities
Isotope
p300
(dp301
g3
I122
sg4
I51
sg5
I0
sbF0.9973293934939993
s(iutils.PhysicsQuantities
Isotope
p302
(dp303
g3
I86
sg4
I40
sg5
I0
sbF0.9895527258544647
s(iutils.PhysicsQuantities
Isotope
p304
(dp305
g3
I7
sg4
I4
sg5
I0
sbF1.999728830224874
s(iutils.PhysicsQuantities
Isotope
p306
(dp307
g3
I83
sg4
I38
sg5
I0
sbF1.9921266703452698
s(iutils.PhysicsQuantities
Isotope
p308
(dp309
g3
I59
sg4
I28
sg5
I0
sbF0.0006384250345549765
s(iutils.PhysicsQuantities
Isotope
p310
(dp311
g3
I35
sg4
I18
sg5
I0
sbF2.3177821883336515e-153
s(iutils.PhysicsQuantities
Isotope
p312
(dp313
g3
I26
sg4
I13
sg5
I0
sbF3.3849170682645434e-05
s(iutils.PhysicsQuantities
Isotope
p314
(dp315
g3
I11
sg4
I6
sg5
I0
sbF0.6002448289569907
s(iutils.PhysicsQuantities
Isotope
p316
(dp317
g3
I20
sg4
I9
sg5
I0
sbF4.8126408288811614e-20
s(iutils.PhysicsQuantities
Isotope
p318
(dp319
g3
I42
sg4
I18
sg5
I0
sbF0.5205583941511279
s(iutils.PhysicsQuantities
Isotope
p320
(dp321
g3
I32
sg4
I13
sg5
I0
sbF0.0
s(iutils.PhysicsQuantities
Isotope
p322
(dp323
g3
I95
sg4
I41
sg5
I0
sbF0.9993951999999205
s(iutils.PhysicsQuantities
Isotope
p324
(dp325
g3
I66
sg4
I29
sg5
I0
sbF0.13020200133132295
s(iutils.PhysicsQuantities
Isotope
p326
(dp327
g3
I60
sg4
I27
sg5
I1
sbF3.234672736991177e-05
s(iutils.PhysicsQuantities
Isotope
p328
(dp329
g3
I31
sg4
I13
sg5
I0
sbF0.0
s(iutils.PhysicsQuantities
Isotope
p330
(dp331
g3
I49
sg4
I25
sg5
I0
sbF0.0
s(iutils.PhysicsQuantities
Isotope
p332
(dp333
g3
I83
sg4
I37
sg5
I0
sbF1.9999996941642686
s(iutils.PhysicsQuantities
Isotope
p334
(dp335
g3
I88
sg4
I39
sg5
I0
sbF2.999932285340232
s(iutils.PhysicsQuantities
Isotope
p336
(dp337
g3
I58
sg4
I24
sg5
I0
sbF1.9776225915124778e-39
s(iutils.PhysicsQuantities
Isotope
p338
(dp339
g3
I97
sg4
I40
sg5
I0
sbF0.9897041810964342
s(iutils.PhysicsQuantities
Isotope
p340
(dp341
g3
I47
sg4
I20
sg5
I0
sbF0.9984101934371736
s(iutils.PhysicsQuantities
Isotope
p342
(dp343
g3
I82
sg4
I38
sg5
I0
sbF0.999717405748304
s(iutils.PhysicsQuantities
Isotope
p344
(dp345
g3
I61
sg4
I25
sg5
I0
sbF0.0
s(iutils.PhysicsQuantities
Isotope
p346
(dp347
g3
I15
sg4
I8
sg5
I0
sbF0.006132374164311564
s(iutils.PhysicsQuantities
Isotope
p348
(dp349
g3
I58
sg4
I29
sg5
I0
sbF2.760657020380957e-85
s(iutils.PhysicsQuantities
Isotope
p350
(dp351
g3
I26
sg4
I13
sg5
I1
sbF3.0833315866931317e-43
s(iutils.PhysicsQuantities
Isotope
p352
(dp353
g3
I51
sg4
I22
sg5
I0
sbF0.3391987561637704
s(iutils.PhysicsQuantities
Isotope
p354
(dp355
g3
I86
sg4
I39
sg5
I1
sbF0.4994720969369098
s(iutils.PhysicsQuantities
Isotope
p356
(dp357
g3
I27
sg4
I12
sg5
I0
sbF0.6663831328004703
s(iutils.PhysicsQuantities
Isotope
p358
(dp359
g3
I32
sg4
I14
sg5
I0
sbF0.3357703186125327
s(iutils.PhysicsQuantities
Isotope
p360
(dp361
g3
I24
sg4
I10
sg5
I0
sbF0.04613898821113297
s(iutils.PhysicsQuantities
Isotope
p362
(dp363
g3
I43
sg4
I18
sg5
I0
sbF0.144256067970301
s(iutils.PhysicsQuantities
Isotope
p364
(dp365
g3
I11
sg4
I4
sg5
I0
sbF2.6282868580377604e-20
s(iutils.PhysicsQuantities
Isotope
p366
(dp367
g3
I88
sg4
I41
sg5
I0
sbF0.488190877359111
s(iutils.PhysicsQuantities
Isotope
p368
(dp369
g3
I51
sg4
I21
sg5
I0
sbF1.415952556054225e-22
s(iutils.PhysicsQuantities
Isotope
p370
(dp371
g3
I33
sg4
I17
sg5
I0
sbF1.2704108858290318e-108
s(iutils.PhysicsQuantities
Isotope
p372
(dp373
g3
I41
sg4
I20
sg5
I0
sbF0.00047107089931930346
s(iutils.PhysicsQuantities
Isotope
p374
(dp375
g3
I53
sg4
I25
sg5
I0
sbF1.9777272949147866e-05
s(iutils.PhysicsQuantities
Isotope
p376
(dp377
g3
I8
sg4
I5
sg5
I0
sbF0.0
s(iutils.PhysicsQuantities
Isotope
p378
(dp379
g3
I13
sg4
I5
sg5
I0
sbF0.0
s(iutils.PhysicsQuantities
Isotope
p380
(dp381
g3
I8
sg4
I2
sg5
I0
sbF0.0
s(iutils.PhysicsQuantities
Isotope
p382
(dp383
g3
I34
sg4
I14
sg5
I0
sbF1.5574717620842273e-98
s(iutils.PhysicsQuantities
Isotope
p384
(dp385
g3
I46
sg4
I21
sg5
I0
sbF0.9999138267636078
s(iutils.PhysicsQuantities
Isotope
p386
(dp387
g3
I41
sg4
I18
sg5
I0
sbF0.9095114189964085
s(iutils.PhysicsQuantities
Isotope
p388
(dp389
g3
I9
sg4
I3
sg5
I0
sbF0.0
s(iutils.PhysicsQuantities
Isotope
p390
(dp391
g3
I68
sg4
I31
sg5
I0
sbF0.8574783424977261
s(iutils.PhysicsQuantities
Isotope
p392
(dp393
g3
I57
sg4
I29
sg5
I0
sbF0.0
s(iutils.PhysicsQuantities
Isotope
p394
(dp395
g3
I29
sg4
I12
sg5
I0
sbF3.932044158304793e-209
s(iutils.PhysicsQuantities
Isotope
p396
(dp397
g3
I46
sg4
I19
sg5
I0
sbF0.002628711313735069
s(iutils.PhysicsQuantities
Isotope
p398
(dp399
g3
I26
sg4
I14
sg5
I0
sbF5.316257936314982e-122
s(iutils.PhysicsQuantities
Isotope
p400
(dp401
g3
I30
sg4
I13
sg5
I0
sbF1.2465988971187515e-74
s(iutils.PhysicsQuantities
Isotope
p402
(dp403
g3
I60
sg4
I26
sg5
I0
sbF3.234686842571665e-05
s(iutils.PhysicsQuantities
Isotope
p404
(dp405
g3
I57
sg4
I24
sg5
I0
sbF1.4449672529255243e-13
s(iutils.PhysicsQuantities
Isotope
p406
(dp407
g3
I50
sg4
I23
sg5
I0
sbF1.7328679513998631e-16
s(iutils.PhysicsQuantities
Isotope
p408
(dp409
g3
I96
sg4
I40
sg5
I0
sbF6.220551620409765e-19
s(iutils.PhysicsQuantities
Isotope
p410
(dp411
g3
I63
sg4
I27
sg5
I0
sbF1.2946531343600814e-10
s(iutils.PhysicsQuantities
Isotope
p412
(dp413
g3
I14
sg4
I8
sg5
I0
sbF0.00014574509176606368
s(iutils.PhysicsQuantities
Isotope
p414
(dp415
g3
I97
sg4
I41
sg5
I1
sbF0.9415369819605965
s(iutils.PhysicsQuantities
Isotope
p416
(dp417
g3
I57
sg4
I27
sg5
I0
sbF2.9999733069894545
s(iutils.PhysicsQuantities
Isotope
p418
(dp419
g3
I50
sg4
I24
sg5
I0
sbF2.695572368844232e-16
s(iutils.PhysicsQuantities
Isotope
p420
(dp421
g3
I80
sg4
I37
sg5
I0
sbF1.0753725297972248e-08
s(iutils.PhysicsQuantities
Isotope
p422
(dp423
g3
I11
sg4
I3
sg5
I0
sbF0.0
s(iutils.PhysicsQuantities
Isotope
p424
(dp425
g3
I38
sg4
I17
sg5
I0
sbF0.7561656365228278
s(iutils.PhysicsQuantities
Isotope
p426
(dp427
g3
I10
sg4
I6
sg5
I0
sbF8.502076364518889e-15
s(iutils.PhysicsQuantities
Isotope
p428
(dp429
g3
I52
sg4
I26
sg5
I0
sbF0.9792767378093351
s(iutils.PhysicsQuantities
Isotope
p430
(dp431
g3
I45
sg4
I19
sg5
I0
sbF0.5482660236401675
s(iutils.PhysicsQuantities
Isotope
p432
(dp433
g3
I88
sg4
I40
sg5
I0
sbF1.9998881062230294
s(iutils.PhysicsQuantities
Isotope
p434
(dp435
g3
I34
sg4
I17
sg5
I0
sbF2.8798738319005213e-178
s(iutils.PhysicsQuantities
Isotope
p436
(dp437
g3
I64
sg4
I30
sg5
I0
sbF1.4661327352643182e-17
s(iutils.PhysicsQuantities
Isotope
p438
(dp439
g3
I14
sg4
I6
sg5
I0
sbF0.0042471333943967715
s(iutils.PhysicsQuantities
Isotope
p440
(dp441
g3
I45
sg4
I22
sg5
I0
sbF0.9452914876844036
s(iutils.PhysicsQuantities
Isotope
p442
(dp443
g3
I67
sg4
I31
sg5
I0
sbF0.9977883177864171
s(iutils.PhysicsQuantities
Isotope
p444
(dp445
g3
I117
sg4
I51
sg5
I0
sbF0.939988026917117
s(iutils.PhysicsQuantities
Isotope
p446
(dp447
g3
I34
sg4
I18
sg5
I0
sbF2.376e-321
s(iutils.PhysicsQuantities
Isotope
p448
(dp449
g3
I64
sg4
I27
sg5
I0
sbF0.0
s(iutils.PhysicsQuantities
Isotope
p450
(dp451
g3
I40
sg4
I17
sg5
I0
sbF0.0004520872618590284
s(iutils.PhysicsQuantities
Isotope
p452
(dp453
g3
I53
sg4
I23
sg5
I0
sbF0.004091054372257884
s(iutils.PhysicsQuantities
Isotope
p454
(dp455
g3
I85
sg4
I38
sg5
I1
sbF0.9953757825046601
s(iutils.PhysicsQuantities
Isotope
p456
(dp457
g3
I118
sg4
I51
sg5
I0
sbF0.0556811698837712
s(iutils.PhysicsQuantities
Isotope
p458
(dp459
g3
I29
sg4
I15
sg5
I0
sbF3.893099341152487e-66
s(iutils.PhysicsQuantities
Isotope
p460
(dp461
g3
I49
sg4
I23
sg5
I0
sbF2.9999731163477783
s(iutils.PhysicsQuantities
Isotope
p462
(dp463
g3
I28
sg4
I15
sg5
I0
sbF0.0
s(iutils.PhysicsQuantities
Isotope
p464
(dp465
g3
I25
sg4
I11
sg5
I0
sbF2.8460664247000237e-05
s(iutils.PhysicsQuantities
Isotope
p466
(dp467
g3
I9
sg4
I5
sg5
I0
sbF0.0
s(iutils.PhysicsQuantities
Isotope
p468
(dp469
g3
I10
sg4
I4
sg5
I0
sbF1.5162594574561464e-05
s(iutils.PhysicsQuantities
Isotope
p470
(dp471
g3
I56
sg4
I27
sg5
I0
sbF1.9999065458809289
s(iutils.PhysicsQuantities
Isotope
p472
(dp473
g3
I52
sg4
I22
sg5
I0
sbF0.0022072573895104103
s(iutils.PhysicsQuantities
Isotope
p474
(dp475
g3
I28
sg4
I12
sg5
I0
sbF0.9917430432655664
s(iutils.PhysicsQuantities
Isotope
p476
(dp477
g3
I42
sg4
I19
sg5
I0
sbF1.5066152410652904
s(iutils.PhysicsQuantities
Isotope
p478
(dp479
g3
I59
sg4
I26
sg5
I0
sbF1.9996766501894832
s(iutils.PhysicsQuantities
Isotope
p480
(dp481
g3
I35
sg4
I16
sg5
I0
sbF1.999840893776705
s(iutils.PhysicsQuantities
Isotope
p482
(dp483
g3
I56
sg4
I24
sg5
I0
sbF0.17370936922324537
s(iutils.PhysicsQuantities
Isotope
p484
(dp485
g3
I44
sg4
I19
sg5
I0
sbF0.6251122052472928
s(iutils.PhysicsQuantities
Isotope
p486
(dp487
g3
I52
sg4
I26
sg5
I1
sbF6.273509164571714e-07
s(iutils.PhysicsQuantities
Isotope
p488
(dp489
g3
I95
sg4
I40
sg5
I0
sbF0.9998872394563525
s(iutils.PhysicsQuantities
Isotope
p490
(dp491
g3
I59
sg4
I25
sg5
I0
sbF9.429977448165812e-60
s(iutils.PhysicsQuantities
Isotope
p492
(dp493
g3
I49
sg4
I24
sg5
I0
sbF1.560614699359332
s(iutils.PhysicsQuantities
Isotope
p494
(dp495
g3
I63
sg4
I30
sg5
I0
sbF0.7627990753722691
s(iutils.PhysicsQuantities
Isotope
p496
(dp497
g3
I66
sg4
I31
sg5
I0
sbF0.9819057662673535
s(iutils.PhysicsQuantities
Isotope
p498
(dp499
g3
I62
sg4
I26
sg5
I0
sbF0.00010342065758164022
s(iutils.PhysicsQuantities
Isotope
p500
(dp501
g3
I58
sg4
I25
sg5
I0
sbF7.013781331189313e-05
s(iutils.PhysicsQuantities
Isotope
p502
(dp503
g3
I33
sg4
I14
sg5
I0
sbF1.4477055625732756e-44
s(iutils.PhysicsQuantities
Isotope
p504
(dp505
g3
I30
sg4
I16
sg5
I0
sbF1.0257439554064653e-230
s(iutils.PhysicsQuantities
Isotope
p506
(dp507
g3
I51
sg4
I26
sg5
I0
sbF0.966483124311298
s(iutils.PhysicsQuantities
Isotope
p508
(dp509
g3
I47
sg4
I23
sg5
I0
sbF0.7269244320285339
s(iutils.PhysicsQuantities
Isotope
p510
(dp511
g3
I44
sg4
I21
sg5
I0
sbF1.289865091162165
s(iutils.PhysicsQuantities
Isotope
p512
(dp513
g3
I91
sg4
I41
sg5
I0
sbF0.03504697021854848
s(iutils.PhysicsQuantities
Isotope
p514
(dp515
g3
I18
sg4
I7
sg5
I0
sbF0.0
s(iutils.PhysicsQuantities
Isotope
p516
(dp517
g3
I37
sg4
I18
sg5
I0
sbF0.9997939416914716
s.